target datalayout = "e-m:e-p270:32:32-p271:32:32-p272:64:64-i64:64-i128:128-f80:128-n8:16:32:64-S128"
target triple = "x86_64-pc-linux-gnu"

%"class.casadi::Slice" = type { i64, i64, i64 }

; Function Attrs: mustprogress nounwind uwtable
define void @_ZN6casadi5SliceC2Eiii(ptr noundef nonnull align 8 dereferenceable(24) %0, i32 noundef %1, i32 noundef %2, i32 noundef %3) unnamed_addr #4 align 2 {
  %5 = alloca ptr, align 8
  %6 = alloca i32, align 4
  %7 = alloca i32, align 4
  %8 = alloca i32, align 4
  store ptr %0, ptr %5, align 8
  store i32 %1, ptr %6, align 4
  store i32 %2, ptr %7, align 4
  store i32 %3, ptr %8, align 4
  %9 = load ptr, ptr %5, align 8
  %10 = getelementptr inbounds %"class.casadi::Slice", ptr %9, i32 0, i32 0
  %11 = load i32, ptr %6, align 4
  %12 = sext i32 %11 to i64
  store i64 %12, ptr %10, align 8
  %13 = getelementptr inbounds %"class.casadi::Slice", ptr %9, i32 0, i32 1
  %14 = load i32, ptr %7, align 4
  %15 = sext i32 %14 to i64
  store i64 %15, ptr %13, align 8
  %16 = getelementptr inbounds %"class.casadi::Slice", ptr %9, i32 0, i32 2
  %17 = load i32, ptr %8, align 4
  %18 = sext i32 %17 to i64
  store i64 %18, ptr %16, align 8
  ret void
}