; Function Attrs: mustprogress nofree norecurse nosync nounwind willreturn memory(argmem: write) uwtable
define void @_ZN6casadi5SliceC2Eiii(ptr nocapture noundef nonnull writeonly align 8 dereferenceable(24) %0, i32 noundef %1, i32 noundef %2, i32 noundef %3) unnamed_addr #3 align 2 {
  %5 = sext i32 %1 to i64
  store i64 %5, ptr %0, align 8
  %6 = getelementptr inbounds i8, ptr %0, i64 8
  %7 = sext i32 %2 to i64
  store i64 %7, ptr %6, align 8
  %8 = getelementptr inbounds i8, ptr %0, i64 16
  %9 = sext i32 %3 to i64
  store i64 %9, ptr %8, align 8
  ret void
}